; Function Attrs: nounwind uwtable
define ptr @Gia_ManRetimeForward(ptr noundef %0, i32 noundef %1, i32 noundef %2) local_unnamed_addr #1 {
  %4 = alloca %struct.timespec, align 8
  %5 = alloca %struct.timespec, align 8
  %6 = alloca i32, align 4
  %7 = alloca i32, align 4
  store i32 1, ptr %7, align 4
  %8 = icmp sgt i32 %1, 0
  br i1 %8, label %.lr.ph, label %._crit_edge

.lr.ph:                                           ; preds = %3
  %9 = getelementptr inbounds nuw i8, ptr %5, i64 8
  %.not = icmp eq i32 %2, 0
  %10 = getelementptr inbounds nuw i8, ptr %4, i64 8
  br i1 %.not, label %.lr.ph.split.us, label %.lr.ph.split

.lr.ph.split.us:                                  ; preds = %.lr.ph, %14
  %.020.us = phi ptr [ %12, %14 ], [ %0, %.lr.ph ]
  %.01319.us = phi i32 [ %15, %14 ], [ 0, %.lr.ph ]
  call void @llvm.lifetime.start.p0(i64 16, ptr nonnull %5)
  %11 = call i32 @clock_gettime(i32 noundef 1, ptr noundef nonnull %5) #16
  call void @llvm.lifetime.end.p0(i64 16, ptr nonnull %5)
  %12 = call ptr @Gia_ManRetimeForwardOne(ptr noundef %.020.us, ptr noundef nonnull %6, ptr noundef nonnull %7)
  %.not14.us = icmp eq ptr %.020.us, %0
  br i1 %.not14.us, label %14, label %13

13:                                               ; preds = %.lr.ph.split.us
  call void @Gia_ManStop(ptr noundef %.020.us) #16
  br label %14

14:                                               ; preds = %13, %.lr.ph.split.us
  %15 = add nuw nsw i32 %.01319.us, 1
  %16 = icmp slt i32 %15, %1
  %17 = load i32, ptr %7, align 4
  %18 = icmp sgt i32 %17, 0
  %19 = select i1 %16, i1 %18, i1 false
  br i1 %19, label %.lr.ph.split.us, label %._crit_edge, !llvm.loop !21

.lr.ph.split:                                     ; preds = %.lr.ph, %54
  %.020 = phi ptr [ %25, %54 ], [ %0, %.lr.ph ]
  %.01319 = phi i32 [ %26, %54 ], [ 0, %.lr.ph ]
  call void @llvm.lifetime.start.p0(i64 16, ptr nonnull %5)
  %20 = call i32 @clock_gettime(i32 noundef 1, ptr noundef nonnull %5) #16
  %21 = icmp slt i32 %20, 0
  br i1 %21, label %Abc_Clock.exit, label %22

22:                                               ; preds = %.lr.ph.split
  %23 = load i64, ptr %5, align 8
  %.neg17 = mul i64 %23, -1000000
  %24 = load i64, ptr %9, align 8
  %.neg = sdiv i64 %24, -1000
  %.neg18 = add i64 %.neg, %.neg17
  br label %Abc_Clock.exit

Abc_Clock.exit:                                   ; preds = %.lr.ph.split, %22
  %.0.i.neg = phi i64 [ %.neg18, %22 ], [ 1, %.lr.ph.split ]
  call void @llvm.lifetime.end.p0(i64 16, ptr nonnull %5)
  %25 = call ptr @Gia_ManRetimeForwardOne(ptr noundef %.020, ptr noundef nonnull %6, ptr noundef nonnull %7)
  %26 = add nuw nsw i32 %.01319, 1
  %27 = getelementptr inbounds nuw i8, ptr %.020, i64 24
  %28 = load i32, ptr %27, align 8
  %29 = getelementptr inbounds nuw i8, ptr %.020, i64 64
  %30 = load ptr, ptr %29, align 8
  %31 = getelementptr i8, ptr %30, i64 4
  %.val3.i = load i32, ptr %31, align 4
  %32 = getelementptr inbounds nuw i8, ptr %.020, i64 72
  %33 = load ptr, ptr %32, align 8
  %34 = getelementptr i8, ptr %33, i64 4
  %.val.i = load i32, ptr %34, align 4
  %35 = add i32 %.val.i, %.val3.i
  %36 = xor i32 %35, -1
  %37 = add i32 %28, %36
  %38 = getelementptr i8, ptr %.020, i64 16
  %.0.val = load i32, ptr %38, align 8
  %39 = load i32, ptr %6, align 4
  %40 = load i32, ptr %7, align 4
  %41 = call i32 (ptr, ...) @printf(ptr noundef nonnull dereferenceable(1) @.str, i32 noundef %26, i32 noundef %37, i32 noundef %.0.val, i32 noundef %39, i32 noundef %40)
  call void (i32, ptr, ...) @Abc_Print(i32 poison, ptr noundef nonnull @.str.1, ptr noundef nonnull @.str.2)
  call void @llvm.lifetime.start.p0(i64 16, ptr nonnull %4)
  %42 = call i32 @clock_gettime(i32 noundef 1, ptr noundef nonnull %4) #16
  %43 = icmp slt i32 %42, 0
  br i1 %43, label %Abc_Clock.exit16, label %44

44:                                               ; preds = %Abc_Clock.exit
  %45 = load i64, ptr %4, align 8
  %46 = mul nsw i64 %45, 1000000
  %47 = load i64, ptr %10, align 8
  %48 = sdiv i64 %47, 1000
  %49 = add nsw i64 %48, %46
  br label %Abc_Clock.exit16

Abc_Clock.exit16:                                 ; preds = %Abc_Clock.exit, %44
  %.0.i15 = phi i64 [ %49, %44 ], [ -1, %Abc_Clock.exit ]
  call void @llvm.lifetime.end.p0(i64 16, ptr nonnull %4)
  %50 = add i64 %.0.i15, %.0.i.neg
  %51 = sitofp i64 %50 to double
  %52 = fdiv double %51, 1.000000e+06
  call void (i32, ptr, ...) @Abc_Print(i32 poison, ptr noundef nonnull @.str.3, double noundef %52)
  %.not14 = icmp eq ptr %.020, %0
  br i1 %.not14, label %54, label %53

53:                                               ; preds = %Abc_Clock.exit16
  call void @Gia_ManStop(ptr noundef nonnull %.020) #16
  br label %54

54:                                               ; preds = %Abc_Clock.exit16, %53
  %55 = icmp slt i32 %26, %1
  %56 = icmp sgt i32 %40, 0
  %57 = and i1 %55, %56
  br i1 %57, label %.lr.ph.split, label %._crit_edge, !llvm.loop !21

._crit_edge:                                      ; preds = %54, %14, %3
  %.0.lcssa = phi ptr [ %0, %3 ], [ %12, %14 ], [ %25, %54 ]
  ret ptr %.0.lcssa
}